target datalayout = "e-m:e-p270:32:32-p271:32:32-p272:64:64-i64:64-i128:128-f80:128-n8:16:32:64-S128"
target triple = "x86_64-pc-linux-gnu"

%"class.Json::Value" = type { %"union.Json::Value::ValueHolder", i16, ptr, i64 }
%"union.Json::Value::ValueHolder" = type { i64 }
%"struct.std::_Rb_tree_node_base" = type { i32, ptr, ptr, ptr }
%"struct.std::_Rb_tree_iterator" = type { ptr }
%"struct.std::pair" = type { %"class.Json::Value::CZString", %"class.Json::Value" }
%"class.Json::Value::CZString" = type <{ ptr, %union.anon.25, [4 x i8] }>
%union.anon.25 = type { i32 }
%"class.Json::ValueIteratorBase" = type <{ %"struct.std::_Rb_tree_iterator", i8, [7 x i8] }>
%"struct.std::_Rb_tree_node.79" = type { %"struct.std::_Rb_tree_node_base", %"struct.__gnu_cxx::__aligned_membuf.80" }
%"struct.__gnu_cxx::__aligned_membuf.80" = type { [48 x i8] }

; Function Attrs: mustprogress nounwind uwtable
define linkonce_odr dso_local noundef ptr @_ZN9__gnu_cxx16__aligned_membufISt4pairIKN4Json5Value8CZStringES3_EE7_M_addrEv(ptr noundef nonnull align 8 dereferenceable(48) %0) #0 comdat align 2 {
  %2 = alloca ptr, align 8
  store ptr %0, ptr %2, align 8
  %3 = load ptr, ptr %2, align 8
  %4 = getelementptr inbounds %"struct.__gnu_cxx::__aligned_membuf.80", ptr %3, i32 0, i32 0
  ret ptr %4
}

; Function Attrs: mustprogress nounwind uwtable
define linkonce_odr dso_local noundef ptr @_ZN9__gnu_cxx16__aligned_membufISt4pairIKN4Json5Value8CZStringES3_EE6_M_ptrEv(ptr noundef nonnull align 8 dereferenceable(48) %0) #0 comdat align 2 {
  %2 = alloca ptr, align 8
  store ptr %0, ptr %2, align 8
  %3 = load ptr, ptr %2, align 8
  %4 = call noundef ptr @_ZN9__gnu_cxx16__aligned_membufISt4pairIKN4Json5Value8CZStringES3_EE7_M_addrEv(ptr noundef nonnull align 8 dereferenceable(48) %3) #10
  ret ptr %4
}

; Function Attrs: mustprogress nounwind uwtable
define linkonce_odr dso_local noundef ptr @_ZNSt13_Rb_tree_nodeISt4pairIKN4Json5Value8CZStringES2_EE9_M_valptrEv(ptr noundef nonnull align 8 dereferenceable(80) %0) #0 comdat align 2 {
  %2 = alloca ptr, align 8
  store ptr %0, ptr %2, align 8
  %3 = load ptr, ptr %2, align 8
  %4 = getelementptr inbounds %"struct.std::_Rb_tree_node.79", ptr %3, i32 0, i32 1
  %5 = call noundef ptr @_ZN9__gnu_cxx16__aligned_membufISt4pairIKN4Json5Value8CZStringES3_EE6_M_ptrEv(ptr noundef nonnull align 8 dereferenceable(48) %4) #10
  ret ptr %5
}

; Function Attrs: mustprogress nounwind uwtable
define dso_local noundef i32 @_ZNK4Json5Value8CZString6lengthEv(ptr noundef nonnull align 8 dereferenceable(12) %0) #0 align 2 {
  %2 = alloca ptr, align 8
  store ptr %0, ptr %2, align 8
  %3 = load ptr, ptr %2, align 8
  %4 = getelementptr inbounds %"class.Json::Value::CZString", ptr %3, i32 0, i32 1
  %5 = load i32, ptr %4, align 8
  %6 = lshr i32 %5, 2
  ret i32 %6
}

; Function Attrs: mustprogress nounwind uwtable
define dso_local noundef ptr @_ZNK4Json5Value8CZString4dataEv(ptr noundef nonnull align 8 dereferenceable(12) %0) #0 align 2 {
  %2 = alloca ptr, align 8
  store ptr %0, ptr %2, align 8
  %3 = load ptr, ptr %2, align 8
  %4 = getelementptr inbounds %"class.Json::Value::CZString", ptr %3, i32 0, i32 0
  %5 = load ptr, ptr %4, align 8
  ret ptr %5
}

; Function Attrs: mustprogress nounwind uwtable
define linkonce_odr dso_local noundef nonnull align 8 dereferenceable(48) ptr @_ZNKSt17_Rb_tree_iteratorISt4pairIKN4Json5Value8CZStringES2_EEdeEv(ptr noundef nonnull align 8 dereferenceable(8) %0) #0 comdat align 2 {
  %2 = alloca ptr, align 8
  store ptr %0, ptr %2, align 8
  %3 = load ptr, ptr %2, align 8
  %4 = getelementptr inbounds %"struct.std::_Rb_tree_iterator", ptr %3, i32 0, i32 0
  %5 = load ptr, ptr %4, align 8
  %6 = call noundef ptr @_ZNSt13_Rb_tree_nodeISt4pairIKN4Json5Value8CZStringES2_EE9_M_valptrEv(ptr noundef nonnull align 8 dereferenceable(80) %5)
  ret ptr %6
}

; Function Attrs: mustprogress uwtable
define dso_local noundef ptr @_ZNK4Json17ValueIteratorBase10memberNameEPPKc(ptr noundef nonnull align 8 dereferenceable(9) %0, ptr noundef %1) #1 align 2 {
  %3 = alloca ptr, align 8
  %4 = alloca ptr, align 8
  %5 = alloca ptr, align 8
  %6 = alloca ptr, align 8
  store ptr %0, ptr %4, align 8
  store ptr %1, ptr %5, align 8
  %7 = load ptr, ptr %4, align 8
  %8 = getelementptr inbounds %"class.Json::ValueIteratorBase", ptr %7, i32 0, i32 0
  %9 = call noundef nonnull align 8 dereferenceable(48) ptr @_ZNKSt17_Rb_tree_iteratorISt4pairIKN4Json5Value8CZStringES2_EEdeEv(ptr noundef nonnull align 8 dereferenceable(8) %8) #10
  %10 = getelementptr inbounds %"struct.std::pair", ptr %9, i32 0, i32 0
  %11 = call noundef ptr @_ZNK4Json5Value8CZString4dataEv(ptr noundef nonnull align 8 dereferenceable(12) %10)
  store ptr %11, ptr %6, align 8
  %12 = load ptr, ptr %6, align 8
  %13 = icmp ne ptr %12, null
  br i1 %13, label %16, label %14

14:                                               ; preds = %2
  %15 = load ptr, ptr %5, align 8
  store ptr null, ptr %15, align 8
  store ptr null, ptr %3, align 8
  br label %26

16:                                               ; preds = %2
  %17 = load ptr, ptr %6, align 8
  %18 = getelementptr inbounds %"class.Json::ValueIteratorBase", ptr %7, i32 0, i32 0
  %19 = call noundef nonnull align 8 dereferenceable(48) ptr @_ZNKSt17_Rb_tree_iteratorISt4pairIKN4Json5Value8CZStringES2_EEdeEv(ptr noundef nonnull align 8 dereferenceable(8) %18) #10
  %20 = getelementptr inbounds %"struct.std::pair", ptr %19, i32 0, i32 0
  %21 = call noundef i32 @_ZNK4Json5Value8CZString6lengthEv(ptr noundef nonnull align 8 dereferenceable(12) %20)
  %22 = zext i32 %21 to i64
  %23 = getelementptr inbounds i8, ptr %17, i64 %22
  %24 = load ptr, ptr %5, align 8
  store ptr %23, ptr %24, align 8
  %25 = load ptr, ptr %6, align 8
  store ptr %25, ptr %3, align 8
  br label %26

26:                                               ; preds = %16, %14
  %27 = load ptr, ptr %3, align 8
  ret ptr %27
}