; Function Attrs: mustprogress nofree norecurse nosync nounwind willreturn memory(read, argmem: readwrite, inaccessiblemem: none) uwtable
define dso_local noundef ptr @_ZNK4Json17ValueIteratorBase10memberNameEPPKc(ptr nocapture noundef nonnull readonly align 8 dereferenceable(9) %0, ptr nocapture noundef writeonly %1) local_unnamed_addr #13 align 2 {
  %3 = load ptr, ptr %0, align 8
  %4 = getelementptr inbounds i8, ptr %3, i64 32
  %5 = load ptr, ptr %4, align 8
  %.not = icmp eq ptr %5, null
  br i1 %.not, label %12, label %6

6:                                                ; preds = %2
  %7 = getelementptr inbounds i8, ptr %3, i64 40
  %8 = load i32, ptr %7, align 8
  %9 = lshr i32 %8, 2
  %10 = zext nneg i32 %9 to i64
  %11 = getelementptr inbounds i8, ptr %5, i64 %10
  br label %12

12:                                               ; preds = %2, %6
  %storemerge = phi ptr [ %11, %6 ], [ null, %2 ]
  store ptr %storemerge, ptr %1, align 8
  ret ptr %5
}